target datalayout = "e-m:e-p270:32:32-p271:32:32-p272:64:64-i64:64-i128:128-f80:128-n8:16:32:64-S128"
target triple = "x86_64-pc-linux-gnu"

%"class.std::__1::__shared_count" = type { ptr, i64 }
%"class.std::__1::future" = type { ptr }
%"class.std::__1::unique_ptr" = type { ptr }

; Function Attrs: inlinehint mustprogress nounwind uwtable
define linkonce_odr hidden noundef i64 @_ZNSt3__134__libcpp_atomic_refcount_decrementB8ne210000IlEET_RS1_(ptr noundef nonnull align 8 dereferenceable(8) %0) #5 comdat {
  %2 = alloca ptr, align 8
  %3 = alloca i64, align 8
  %4 = alloca i64, align 8
  store ptr %0, ptr %2, align 8, !tbaa !99
  %5 = load ptr, ptr %2, align 8, !tbaa !99
  store i64 -1, ptr %3, align 8, !tbaa !77
  %6 = load i64, ptr %3, align 8
  %7 = atomicrmw add ptr %5, i64 %6 acq_rel, align 8
  %8 = add i64 %7, %6
  store i64 %8, ptr %4, align 8
  %9 = load i64, ptr %4, align 8, !tbaa !77
  ret i64 %9
}

; Function Attrs: mustprogress nounwind uwtable
define linkonce_odr hidden noundef zeroext i1 @_ZNSt3__114__shared_count16__release_sharedB8ne210000Ev(ptr noundef nonnull align 8 dereferenceable(16) %0) #0 comdat align 2 {
  %2 = alloca i1, align 1
  %3 = alloca ptr, align 8
  store ptr %0, ptr %3, align 8, !tbaa !60
  %4 = load ptr, ptr %3, align 8
  %5 = getelementptr inbounds nuw %"class.std::__1::__shared_count", ptr %4, i32 0, i32 1
  %6 = call noundef i64 @_ZNSt3__134__libcpp_atomic_refcount_decrementB8ne210000IlEET_RS1_(ptr noundef nonnull align 8 dereferenceable(8) %5) #2
  %7 = icmp eq i64 %6, -1
  br i1 %7, label %8, label %12

8:                                                ; preds = %1
  %9 = load ptr, ptr %4, align 8, !tbaa !20
  %10 = getelementptr inbounds ptr, ptr %9, i64 2
  %11 = load ptr, ptr %10, align 8
  call void %11(ptr noundef nonnull align 8 dereferenceable(16) %4) #2
  store i1 true, ptr %2, align 1
  br label %13

12:                                               ; preds = %1
  store i1 false, ptr %2, align 1
  br label %13

13:                                               ; preds = %12, %8
  %14 = load i1, ptr %2, align 1
  ret i1 %14
}

; Function Attrs: noinline noreturn nounwind uwtable
define linkonce_odr hidden void @__clang_call_terminate(ptr noundef %0) #12 comdat {
  %2 = call ptr @__cxa_begin_catch(ptr %0) #2
  call void @_ZSt9terminatev() #20
  unreachable
}

; Function Attrs: mustprogress nounwind uwtable
define linkonce_odr hidden void @_ZNSt3__122__release_shared_countclB8ne210000EPNS_14__shared_countE(ptr noundef nonnull align 1 dereferenceable(1) %0, ptr noundef %1) #0 comdat align 2 {
  %3 = alloca ptr, align 8
  %4 = alloca ptr, align 8
  store ptr %0, ptr %3, align 8, !tbaa !101
  store ptr %1, ptr %4, align 8, !tbaa !60
  %5 = load ptr, ptr %4, align 8, !tbaa !60
  %6 = call noundef zeroext i1 @_ZNSt3__114__shared_count16__release_sharedB8ne210000Ev(ptr noundef nonnull align 8 dereferenceable(16) %5) #2
  ret void
}

; Function Attrs: mustprogress nounwind uwtable
define linkonce_odr hidden void @_ZNSt3__110unique_ptrINS_14__shared_countENS_22__release_shared_countEE5resetB8ne210000EPS1_(ptr noundef nonnull align 8 dereferenceable(8) %0, ptr noundef %1) #0 comdat align 2 personality ptr @__gxx_personality_v0 {
  %3 = alloca ptr, align 8
  %4 = alloca ptr, align 8
  %5 = alloca ptr, align 8
  store ptr %0, ptr %3, align 8, !tbaa !62
  store ptr %1, ptr %4, align 8, !tbaa !60
  %6 = load ptr, ptr %3, align 8
  call void @llvm.lifetime.start.p0(i64 8, ptr %5) #2
  %7 = getelementptr inbounds nuw %"class.std::__1::unique_ptr", ptr %6, i32 0, i32 0
  %8 = load ptr, ptr %7, align 8, !tbaa !64
  store ptr %8, ptr %5, align 8, !tbaa !60
  %9 = load ptr, ptr %4, align 8, !tbaa !60
  %10 = getelementptr inbounds nuw %"class.std::__1::unique_ptr", ptr %6, i32 0, i32 0
  store ptr %9, ptr %10, align 8, !tbaa !64
  %11 = load ptr, ptr %5, align 8, !tbaa !60
  %12 = icmp ne ptr %11, null
  br i1 %12, label %13, label %16

13:                                               ; preds = %2
  %14 = load ptr, ptr %5, align 8, !tbaa !60
  invoke void @_ZNSt3__122__release_shared_countclB8ne210000EPNS_14__shared_countE(ptr noundef nonnull align 1 dereferenceable(1) %6, ptr noundef %14)
          to label %15 unwind label %17

15:                                               ; preds = %13
  br label %16

16:                                               ; preds = %15, %2
  call void @llvm.lifetime.end.p0(i64 8, ptr %5) #2
  ret void

17:                                               ; preds = %13
  %18 = landingpad { ptr, i32 }
          catch ptr null
  %19 = extractvalue { ptr, i32 } %18, 0
  call void @__clang_call_terminate(ptr %19) #20
  unreachable
}

; Function Attrs: mustprogress nounwind uwtable
define linkonce_odr hidden void @_ZNSt3__110unique_ptrINS_14__shared_countENS_22__release_shared_countEED2B8ne210000Ev(ptr noundef nonnull align 8 dereferenceable(8) %0) unnamed_addr #0 comdat align 2 {
  %2 = alloca ptr, align 8
  store ptr %0, ptr %2, align 8, !tbaa !62
  %3 = load ptr, ptr %2, align 8
  call void @_ZNSt3__110unique_ptrINS_14__shared_countENS_22__release_shared_countEE5resetB8ne210000EPS1_(ptr noundef nonnull align 8 dereferenceable(8) %3, ptr noundef null) #2
  ret void
}

; Function Attrs: mustprogress nounwind uwtable
define linkonce_odr hidden void @_ZNSt3__110unique_ptrINS_14__shared_countENS_22__release_shared_countEEC2B8ne210000ILb1EvEEPS1_(ptr noundef nonnull align 8 dereferenceable(8) %0, ptr noundef %1) unnamed_addr #0 comdat align 2 {
  %3 = alloca ptr, align 8
  %4 = alloca ptr, align 8
  store ptr %0, ptr %3, align 8, !tbaa !62
  store ptr %1, ptr %4, align 8, !tbaa !60
  %5 = load ptr, ptr %3, align 8
  %6 = getelementptr inbounds nuw %"class.std::__1::unique_ptr", ptr %5, i32 0, i32 0
  %7 = load ptr, ptr %4, align 8, !tbaa !60
  store ptr %7, ptr %6, align 8, !tbaa !64
  ret void
}

; Function Attrs: mustprogress uwtable
define dso_local void @_ZNSt3__16futureIvE3getEv(ptr noundef nonnull align 8 dereferenceable(8) %0) #1 align 2 personality ptr @__gxx_personality_v0 {
  %2 = alloca ptr, align 8
  %3 = alloca %"class.std::__1::unique_ptr", align 8
  %4 = alloca ptr, align 8
  %5 = alloca ptr, align 8
  %6 = alloca i32, align 4
  store ptr %0, ptr %2, align 8, !tbaa !55
  %7 = load ptr, ptr %2, align 8
  call void @llvm.lifetime.start.p0(i64 8, ptr %3) #2
  %8 = getelementptr inbounds nuw %"class.std::__1::future", ptr %7, i32 0, i32 0
  %9 = load ptr, ptr %8, align 8, !tbaa !57
  call void @_ZNSt3__110unique_ptrINS_14__shared_countENS_22__release_shared_countEEC2B8ne210000ILb1EvEEPS1_(ptr noundef nonnull align 8 dereferenceable(8) %3, ptr noundef %9) #2
  call void @llvm.lifetime.start.p0(i64 8, ptr %4) #2
  %10 = getelementptr inbounds nuw %"class.std::__1::future", ptr %7, i32 0, i32 0
  %11 = load ptr, ptr %10, align 8, !tbaa !57
  store ptr %11, ptr %4, align 8, !tbaa !25
  %12 = getelementptr inbounds nuw %"class.std::__1::future", ptr %7, i32 0, i32 0
  store ptr null, ptr %12, align 8, !tbaa !57
  %13 = load ptr, ptr %4, align 8, !tbaa !25
  invoke void @_ZNSt3__117__assoc_sub_state4copyEv(ptr noundef nonnull align 8 dereferenceable(116) %13)
          to label %14 unwind label %15

14:                                               ; preds = %1
  call void @llvm.lifetime.end.p0(i64 8, ptr %4) #2
  call void @_ZNSt3__110unique_ptrINS_14__shared_countENS_22__release_shared_countEED2B8ne210000Ev(ptr noundef nonnull align 8 dereferenceable(8) %3) #2
  call void @llvm.lifetime.end.p0(i64 8, ptr %3) #2
  ret void

15:                                               ; preds = %1
  %16 = landingpad { ptr, i32 }
          cleanup
  %17 = extractvalue { ptr, i32 } %16, 0
  store ptr %17, ptr %5, align 8
  %18 = extractvalue { ptr, i32 } %16, 1
  store i32 %18, ptr %6, align 4
  call void @llvm.lifetime.end.p0(i64 8, ptr %4) #2
  call void @_ZNSt3__110unique_ptrINS_14__shared_countENS_22__release_shared_countEED2B8ne210000Ev(ptr noundef nonnull align 8 dereferenceable(8) %3) #2
  call void @llvm.lifetime.end.p0(i64 8, ptr %3) #2
  br label %19

19:                                               ; preds = %15
  %20 = load ptr, ptr %5, align 8
  %21 = load i32, ptr %6, align 4
  %22 = insertvalue { ptr, i32 } poison, ptr %20, 0
  %23 = insertvalue { ptr, i32 } %22, i32 %21, 1
  resume { ptr, i32 } %23
}