; Function Attrs: mustprogress uwtable
define dso_local void @_ZNSt3__16futureIvE3getEv(ptr noundef nonnull align 8 captures(none) dereferenceable(8) %0) local_unnamed_addr #1 align 2 personality ptr @__gxx_personality_v0 {
  %2 = load ptr, ptr %0, align 8, !tbaa !35
  store ptr null, ptr %0, align 8, !tbaa !35
  invoke void @_ZNSt3__117__assoc_sub_state4copyEv(ptr noundef nonnull align 8 dereferenceable(116) %2)
          to label %3 unwind label %11

3:                                                ; preds = %1
  %4 = getelementptr inbounds nuw i8, ptr %2, i64 8
  %5 = atomicrmw add ptr %4, i64 -1 acq_rel, align 8
  %6 = icmp eq i64 %5, 0
  br i1 %6, label %7, label %_ZNSt3__110unique_ptrINS_14__shared_countENS_22__release_shared_countEED2B8ne210000Ev.exit

7:                                                ; preds = %3
  %8 = load ptr, ptr %2, align 8, !tbaa !8
  %9 = getelementptr inbounds nuw i8, ptr %8, i64 16
  %10 = load ptr, ptr %9, align 8
  tail call void %10(ptr noundef nonnull align 8 dereferenceable(16) %2) #21
  br label %_ZNSt3__110unique_ptrINS_14__shared_countENS_22__release_shared_countEED2B8ne210000Ev.exit

_ZNSt3__110unique_ptrINS_14__shared_countENS_22__release_shared_countEED2B8ne210000Ev.exit: ; preds = %3, %7
  ret void

11:                                               ; preds = %1
  %12 = landingpad { ptr, i32 }
          cleanup
  %13 = getelementptr inbounds nuw i8, ptr %2, i64 8
  %14 = atomicrmw add ptr %13, i64 -1 acq_rel, align 8
  %15 = icmp eq i64 %14, 0
  br i1 %15, label %16, label %_ZNSt3__110unique_ptrINS_14__shared_countENS_22__release_shared_countEED2B8ne210000Ev.exit4

16:                                               ; preds = %11
  %17 = load ptr, ptr %2, align 8, !tbaa !8
  %18 = getelementptr inbounds nuw i8, ptr %17, i64 16
  %19 = load ptr, ptr %18, align 8
  tail call void %19(ptr noundef nonnull align 8 dereferenceable(16) %2) #21
  br label %_ZNSt3__110unique_ptrINS_14__shared_countENS_22__release_shared_countEED2B8ne210000Ev.exit4

_ZNSt3__110unique_ptrINS_14__shared_countENS_22__release_shared_countEED2B8ne210000Ev.exit4: ; preds = %11, %16
  resume { ptr, i32 } %12
}